target datalayout = "e-m:e-p270:32:32-p271:32:32-p272:64:64-i64:64-i128:128-f80:128-n8:16:32:64-S128"
target triple = "x86_64-pc-linux-gnu"

%struct.io_hdr_t = type { i32, i16, i16, i32 }
%struct.buf_t = type { i32, ptr, i32, i32, i8, i8 }

@.str = private unnamed_addr constant [59 x i8] c"%s: Unable to pack with only %u/%u bytes present in buffer\00", align 1
@__func__.io_hdr_unpack = private unnamed_addr constant [14 x i8] c"io_hdr_unpack\00", align 1
@.str.1 = private unnamed_addr constant [14 x i8] c"%s: error: %m\00", align 1

; Function Attrs: nounwind uwtable
define dso_local i32 @io_hdr_unpack(ptr noundef %0, ptr noundef %1) #0 {
  %3 = alloca i32, align 4
  %4 = alloca ptr, align 8
  %5 = alloca ptr, align 8
  %6 = alloca i16, align 2
  %7 = alloca i32, align 4
  store ptr %0, ptr %4, align 8
  store ptr %1, ptr %5, align 8
  call void @llvm.lifetime.start.p0(i64 2, ptr %6) #6
  %8 = load ptr, ptr %5, align 8
  %9 = getelementptr inbounds nuw %struct.buf_t, ptr %8, i32 0, i32 2
  %10 = load i32, ptr %9, align 8
  %11 = icmp ult i32 %10, 10
  br i1 %11, label %12, label %26

12:                                               ; preds = %2
  br label %13

13:                                               ; preds = %12
  br label %14

14:                                               ; preds = %13
  %15 = call i32 @get_log_level()
  %16 = icmp sge i32 %15, 7
  br i1 %16, label %17, label %21

17:                                               ; preds = %14
  %18 = load ptr, ptr %5, align 8
  %19 = getelementptr inbounds nuw %struct.buf_t, ptr %18, i32 0, i32 2
  %20 = load i32, ptr %19, align 8
  call void (i32, ptr, ...) @log_var(i32 noundef 7, ptr noundef @.str, ptr noundef @__func__.io_hdr_unpack, i32 noundef 10, i32 noundef %20)
  br label %21

21:                                               ; preds = %17, %14
  br label %22

22:                                               ; preds = %21
  br label %23

23:                                               ; preds = %22
  br label %24

24:                                               ; preds = %23
  br label %25

25:                                               ; preds = %24
  store i32 11, ptr %3, align 4
  store i32 1, ptr %7, align 4
  br label %82

26:                                               ; preds = %2
  br label %27

27:                                               ; preds = %26
  %28 = load ptr, ptr %5, align 8
  %29 = call i32 @unpack16(ptr noundef %6, ptr noundef %28)
  %30 = icmp ne i32 %29, 0
  br i1 %30, label %31, label %32

31:                                               ; preds = %27
  br label %80

32:                                               ; preds = %27
  br label %33

33:                                               ; preds = %32
  br label %34

34:                                               ; preds = %33
  %35 = load i16, ptr %6, align 2
  %36 = zext i16 %35 to i32
  %37 = load ptr, ptr %4, align 8
  %38 = getelementptr inbounds nuw %struct.io_hdr_t, ptr %37, i32 0, i32 0
  store i32 %36, ptr %38, align 4
  %39 = load ptr, ptr %4, align 8
  %40 = getelementptr inbounds nuw %struct.io_hdr_t, ptr %39, i32 0, i32 0
  %41 = load i32, ptr %40, align 4
  %42 = icmp sle i32 %41, -1
  br i1 %42, label %48, label %43

43:                                               ; preds = %34
  %44 = load ptr, ptr %4, align 8
  %45 = getelementptr inbounds nuw %struct.io_hdr_t, ptr %44, i32 0, i32 0
  %46 = load i32, ptr %45, align 4
  %47 = icmp sge i32 %46, 5
  br i1 %47, label %48, label %49

48:                                               ; preds = %43, %34
  br label %80

49:                                               ; preds = %43
  br label %50

50:                                               ; preds = %49
  %51 = load ptr, ptr %4, align 8
  %52 = getelementptr inbounds nuw %struct.io_hdr_t, ptr %51, i32 0, i32 1
  %53 = load ptr, ptr %5, align 8
  %54 = call i32 @unpack16(ptr noundef %52, ptr noundef %53)
  %55 = icmp ne i32 %54, 0
  br i1 %55, label %56, label %57

56:                                               ; preds = %50
  br label %80

57:                                               ; preds = %50
  br label %58

58:                                               ; preds = %57
  br label %59

59:                                               ; preds = %58
  br label %60

60:                                               ; preds = %59
  %61 = load ptr, ptr %4, align 8
  %62 = getelementptr inbounds nuw %struct.io_hdr_t, ptr %61, i32 0, i32 2
  %63 = load ptr, ptr %5, align 8
  %64 = call i32 @unpack16(ptr noundef %62, ptr noundef %63)
  %65 = icmp ne i32 %64, 0
  br i1 %65, label %66, label %67

66:                                               ; preds = %60
  br label %80

67:                                               ; preds = %60
  br label %68

68:                                               ; preds = %67
  br label %69

69:                                               ; preds = %68
  br label %70

70:                                               ; preds = %69
  %71 = load ptr, ptr %4, align 8
  %72 = getelementptr inbounds nuw %struct.io_hdr_t, ptr %71, i32 0, i32 3
  %73 = load ptr, ptr %5, align 8
  %74 = call i32 @unpack32(ptr noundef %72, ptr noundef %73)
  %75 = icmp ne i32 %74, 0
  br i1 %75, label %76, label %77

76:                                               ; preds = %70
  br label %80

77:                                               ; preds = %70
  br label %78

78:                                               ; preds = %77
  br label %79

79:                                               ; preds = %78
  store i32 0, ptr %3, align 4
  store i32 1, ptr %7, align 4
  br label %82

80:                                               ; preds = %76, %66, %56, %48, %31
  %81 = call i32 (ptr, ...) @error(ptr noundef @.str.1, ptr noundef @__func__.io_hdr_unpack)
  store i32 -1, ptr %3, align 4
  store i32 1, ptr %7, align 4
  br label %82

82:                                               ; preds = %80, %79, %25
  call void @llvm.lifetime.end.p0(i64 2, ptr %6) #6
  %83 = load i32, ptr %3, align 4
  ret i32 %83
}