; Function Attrs: nounwind uwtable
define dso_local range(i32 -1, 12) i32 @io_hdr_unpack(ptr noundef %0, ptr noundef %1) local_unnamed_addr #0 {
  %3 = alloca i16, align 2
  call void @llvm.lifetime.start.p0(i64 2, ptr nonnull %3) #7
  %4 = getelementptr inbounds nuw i8, ptr %1, i64 16
  %5 = load i32, ptr %4, align 8
  %6 = icmp ult i32 %5, 10
  br i1 %6, label %7, label %12

7:                                                ; preds = %2
  %8 = tail call i32 @get_log_level() #7
  %9 = icmp sgt i32 %8, 6
  br i1 %9, label %10, label %29

10:                                               ; preds = %7
  %11 = load i32, ptr %4, align 8
  tail call void (i32, ptr, ...) @log_var(i32 noundef 7, ptr noundef nonnull @.str, ptr noundef nonnull @__func__.io_hdr_unpack, i32 noundef 10, i32 noundef %11) #7
  br label %29

12:                                               ; preds = %2
  %13 = call i32 @unpack16(ptr noundef nonnull %3, ptr noundef nonnull %1) #7
  %.not = icmp eq i32 %13, 0
  br i1 %.not, label %14, label %27

14:                                               ; preds = %12
  %15 = load i16, ptr %3, align 2
  %16 = zext i16 %15 to i32
  store i32 %16, ptr %0, align 4
  %17 = icmp ugt i16 %15, 4
  br i1 %17, label %27, label %18

18:                                               ; preds = %14
  %19 = getelementptr inbounds nuw i8, ptr %0, i64 4
  %20 = call i32 @unpack16(ptr noundef nonnull %19, ptr noundef nonnull %1) #7
  %.not12 = icmp eq i32 %20, 0
  br i1 %.not12, label %21, label %27

21:                                               ; preds = %18
  %22 = getelementptr inbounds nuw i8, ptr %0, i64 6
  %23 = call i32 @unpack16(ptr noundef nonnull %22, ptr noundef nonnull %1) #7
  %.not13 = icmp eq i32 %23, 0
  br i1 %.not13, label %24, label %27

24:                                               ; preds = %21
  %25 = getelementptr inbounds nuw i8, ptr %0, i64 8
  %26 = call i32 @unpack32(ptr noundef nonnull %25, ptr noundef nonnull %1) #7
  %.not14 = icmp eq i32 %26, 0
  br i1 %.not14, label %29, label %27

27:                                               ; preds = %24, %21, %18, %14, %12
  %28 = call i32 (ptr, ...) @error(ptr noundef nonnull @.str.1, ptr noundef nonnull @__func__.io_hdr_unpack) #7
  br label %29

29:                                               ; preds = %24, %7, %10, %27
  %.0 = phi i32 [ -1, %27 ], [ 11, %10 ], [ 11, %7 ], [ 0, %24 ]
  call void @llvm.lifetime.end.p0(i64 2, ptr nonnull %3) #7
  ret i32 %.0
}